target datalayout = "e-m:e-p270:32:32-p271:32:32-p272:64:64-i64:64-i128:128-f80:128-n8:16:32:64-S128"
target triple = "x86_64-pc-linux-gnu"

%struct.FunctionCallInfoBaseData = type { ptr, ptr, ptr, i32, i8, i16, [0 x %struct.NullableDatum] }
%struct.NullableDatum = type { i64, i8 }

; Function Attrs: inlinehint nounwind uwtable
define internal i64 @PointerGetDatum(ptr noundef %0) #2 {
  %2 = alloca ptr, align 8
  store ptr %0, ptr %2, align 8
  %3 = load ptr, ptr %2, align 8
  %4 = ptrtoint ptr %3 to i64
  ret i64 %4
}

; Function Attrs: nounwind uwtable
define internal ptr @string_to_text(ptr noundef %0) #0 {
  %2 = alloca ptr, align 8
  %3 = alloca ptr, align 8
  store ptr %0, ptr %2, align 8
  call void @llvm.lifetime.start.p0(i64 8, ptr %3) #10
  %4 = load ptr, ptr %2, align 8
  %5 = call ptr @cstring_to_text(ptr noundef %4)
  store ptr %5, ptr %3, align 8
  %6 = load ptr, ptr %2, align 8
  call void @pfree(ptr noundef %6)
  %7 = load ptr, ptr %3, align 8
  call void @llvm.lifetime.end.p0(i64 8, ptr %3) #10
  ret ptr %7
}

; Function Attrs: inlinehint nounwind uwtable
define internal ptr @DatumGetPointer(i64 noundef %0) #2 {
  %2 = alloca i64, align 8
  store i64 %0, ptr %2, align 8
  %3 = load i64, ptr %2, align 8
  %4 = inttoptr i64 %3 to ptr
  ret ptr %4
}

; Function Attrs: nounwind uwtable
define dso_local i64 @pg_get_viewdef_name(ptr noundef %0) #0 {
  %2 = alloca i64, align 8
  %3 = alloca ptr, align 8
  %4 = alloca ptr, align 8
  %5 = alloca i32, align 4
  %6 = alloca ptr, align 8
  %7 = alloca i32, align 4
  %8 = alloca ptr, align 8
  %9 = alloca i32, align 4
  store ptr %0, ptr %3, align 8
  call void @llvm.lifetime.start.p0(i64 8, ptr %4) #10
  %10 = load ptr, ptr %3, align 8
  %11 = getelementptr inbounds nuw %struct.FunctionCallInfoBaseData, ptr %10, i32 0, i32 6
  %12 = getelementptr inbounds [0 x %struct.NullableDatum], ptr %11, i64 0, i64 0
  %13 = getelementptr inbounds nuw %struct.NullableDatum, ptr %12, i32 0, i32 0
  %14 = load i64, ptr %13, align 8
  %15 = call ptr @DatumGetPointer(i64 noundef %14)
  %16 = call ptr @pg_detoast_datum_packed(ptr noundef %15)
  store ptr %16, ptr %4, align 8
  call void @llvm.lifetime.start.p0(i64 4, ptr %5) #10
  call void @llvm.lifetime.start.p0(i64 8, ptr %6) #10
  call void @llvm.lifetime.start.p0(i64 4, ptr %7) #10
  call void @llvm.lifetime.start.p0(i64 8, ptr %8) #10
  store i32 2, ptr %5, align 4
  %17 = load ptr, ptr %4, align 8
  %18 = call ptr @textToQualifiedNameList(ptr noundef %17)
  %19 = call ptr @makeRangeVarFromNameList(ptr noundef %18)
  store ptr %19, ptr %6, align 8
  %20 = load ptr, ptr %6, align 8
  %21 = call i32 @RangeVarGetRelidExtended(ptr noundef %20, i32 noundef 0, i32 noundef 0, ptr noundef null, ptr noundef null)
  store i32 %21, ptr %7, align 4
  %22 = load i32, ptr %7, align 4
  %23 = load i32, ptr %5, align 4
  %24 = call ptr @pg_get_viewdef_worker(i32 noundef %22, i32 noundef %23, i32 noundef 0)
  store ptr %24, ptr %8, align 8
  %25 = load ptr, ptr %8, align 8
  %26 = icmp eq ptr %25, null
  br i1 %26, label %27, label %33

27:                                               ; preds = %1
  br label %28

28:                                               ; preds = %27
  %29 = load ptr, ptr %3, align 8
  %30 = getelementptr inbounds nuw %struct.FunctionCallInfoBaseData, ptr %29, i32 0, i32 4
  store i8 1, ptr %30, align 4
  store i64 0, ptr %2, align 8
  store i32 1, ptr %9, align 4
  br label %37

31:                                               ; No predecessors!
  br label %32

32:                                               ; preds = %31
  br label %33

33:                                               ; preds = %32, %1
  %34 = load ptr, ptr %8, align 8
  %35 = call ptr @string_to_text(ptr noundef %34)
  %36 = call i64 @PointerGetDatum(ptr noundef %35)
  store i64 %36, ptr %2, align 8
  store i32 1, ptr %9, align 4
  br label %37

37:                                               ; preds = %33, %28
  call void @llvm.lifetime.end.p0(i64 8, ptr %8) #10
  call void @llvm.lifetime.end.p0(i64 4, ptr %7) #10
  call void @llvm.lifetime.end.p0(i64 8, ptr %6) #10
  call void @llvm.lifetime.end.p0(i64 4, ptr %5) #10
  call void @llvm.lifetime.end.p0(i64 8, ptr %4) #10
  %38 = load i64, ptr %2, align 8
  ret i64 %38
}