; Function Attrs: nounwind uwtable
define dso_local i64 @pg_get_viewdef_name(ptr noundef captures(none) %0) local_unnamed_addr #0 {
  %2 = getelementptr inbounds nuw i8, ptr %0, i64 32
  %3 = load i64, ptr %2, align 8
  %4 = inttoptr i64 %3 to ptr
  %5 = tail call ptr @pg_detoast_datum_packed(ptr noundef %4) #11
  %6 = tail call ptr @textToQualifiedNameList(ptr noundef %5) #11
  %7 = tail call ptr @makeRangeVarFromNameList(ptr noundef %6) #11
  %8 = tail call i32 @RangeVarGetRelidExtended(ptr noundef %7, i32 noundef 0, i32 noundef 0, ptr noundef null, ptr noundef null) #11
  %9 = tail call fastcc ptr @pg_get_viewdef_worker(i32 noundef %8, i32 noundef 2, i32 noundef 0)
  %10 = icmp eq ptr %9, null
  br i1 %10, label %11, label %13

11:                                               ; preds = %1
  %12 = getelementptr inbounds nuw i8, ptr %0, i64 28
  store i8 1, ptr %12, align 4
  br label %16

13:                                               ; preds = %1
  %14 = tail call ptr @cstring_to_text(ptr noundef nonnull %9) #11
  tail call void @pfree(ptr noundef nonnull %9) #11
  %15 = ptrtoint ptr %14 to i64
  br label %16

16:                                               ; preds = %13, %11
  %.0 = phi i64 [ 0, %11 ], [ %15, %13 ]
  ret i64 %.0
}